target datalayout = "e-m:e-p270:32:32-p271:32:32-p272:64:64-i64:64-i128:128-f80:128-n8:16:32:64-S128"
target triple = "x86_64-pc-linux-gnu"

%struct._packet_info = type { ptr, ptr, i32, i32, %struct.nstime_t, %struct.nstime_t, %struct.nstime_t, i8, ptr, ptr, ptr, ptr, %struct._address, %struct._address, %struct._address, %struct._address, %struct._address, %struct._address, i32, ptr, i8, [3 x i8], %struct.anon, i32, i32, i32, i32, ptr, i8, ptr, ptr, i16, i16, i32, i32, i16, i32, i32, ptr, ptr, ptr, i8, i8, i16, i16, i16, i32, i16, i16, ptr, ptr, ptr, ptr, ptr, i32, i32 }
%struct.nstime_t = type { i64, i32 }
%struct._address = type { i32, i32, ptr, ptr }
%struct.anon = type { i8, [3 x i8] }
%struct._at_processed_cmd_t = type { [20 x i8], i16, i32, i32, i32, ptr }
%struct._at_packet_info_t = type { %struct._at_processed_cmd_t, %struct._at_processed_cmd_t, %struct._at_processed_cmd_t, %struct._at_processed_cmd_t }

@hf_cmgr_address = internal global i32 0, align 4
@hf_cmgr_mode = internal global i32 0, align 4
@hf_cmgr_msg_index = internal global i32 0, align 4
@hf_cmgr_msg_length = internal global i32 0, align 4
@hf_cmgr_stat = internal global i32 0, align 4

; Function Attrs: alwaysinline nounwind
define internal ptr @memcpy.inline(ptr noalias %0, ptr noalias %1, i64 %2) #9 {
  %4 = alloca ptr, align 8
  %5 = alloca ptr, align 8
  %6 = alloca i64, align 8
  store ptr %0, ptr %4, align 8
  store ptr %1, ptr %5, align 8
  store i64 %2, ptr %6, align 8
  %7 = load ptr, ptr %4, align 8
  %8 = load ptr, ptr %5, align 8
  %9 = load i64, ptr %6, align 8
  %10 = load ptr, ptr %4, align 8
  %11 = call i64 @llvm.objectsize.i64.p0(ptr %10, i1 false, i1 true, i1 true)
  %12 = call ptr @__memcpy_chk(ptr noundef %7, ptr noundef %8, i64 noundef %9, i64 noundef %11) #12
  ret ptr %12
}

; Function Attrs: nounwind null_pointer_is_valid sspstrong uwtable
define internal ptr @get_current_role_last_command(ptr noundef %0, i32 noundef %1) #4 {
  %3 = alloca ptr, align 8
  %4 = alloca ptr, align 8
  %5 = alloca i32, align 4
  store ptr %0, ptr %4, align 8
  store i32 %1, ptr %5, align 4
  %6 = load ptr, ptr %4, align 8
  %7 = icmp ne ptr %6, null
  br i1 %7, label %9, label %8

8:                                                ; preds = %2
  store ptr null, ptr %3, align 8
  br label %20

9:                                                ; preds = %2
  %10 = load i32, ptr %5, align 4
  %11 = icmp eq i32 %10, 1
  br i1 %11, label %12, label %15

12:                                               ; preds = %9
  %13 = load ptr, ptr %4, align 8
  %14 = getelementptr inbounds nuw %struct._at_packet_info_t, ptr %13, i32 0, i32 3
  br label %18

15:                                               ; preds = %9
  %16 = load ptr, ptr %4, align 8
  %17 = getelementptr inbounds nuw %struct._at_packet_info_t, ptr %16, i32 0, i32 2
  br label %18

18:                                               ; preds = %15, %12
  %19 = phi ptr [ %14, %12 ], [ %17, %15 ]
  store ptr %19, ptr %3, align 8
  br label %20

20:                                               ; preds = %18, %8
  %21 = load ptr, ptr %3, align 8
  ret ptr %21
}

; Function Attrs: null_pointer_is_valid sspstrong uwtable
define internal i32 @get_uint_parameter(ptr noundef %0, ptr noundef %1, i32 noundef %2) #0 {
  %4 = alloca ptr, align 8
  %5 = alloca ptr, align 8
  %6 = alloca i32, align 4
  %7 = alloca i32, align 4
  %8 = alloca ptr, align 8
  store ptr %0, ptr %4, align 8
  store ptr %1, ptr %5, align 8
  store i32 %2, ptr %6, align 4
  call void @llvm.lifetime.start.p0(i64 4, ptr %7) #12
  call void @llvm.lifetime.start.p0(i64 8, ptr %8) #12
  %9 = load ptr, ptr %4, align 8
  %10 = load i32, ptr %6, align 4
  %11 = add i32 %10, 1
  %12 = sext i32 %11 to i64
  %13 = call noalias ptr @wmem_alloc(ptr noundef %9, i64 noundef %12) #13
  store ptr %13, ptr %8, align 8
  %14 = load ptr, ptr %8, align 8
  %15 = load ptr, ptr %5, align 8
  %16 = load i32, ptr %6, align 4
  %17 = sext i32 %16 to i64
  %18 = call ptr @memcpy.inline(ptr noundef %14, ptr noundef %15, i64 noundef %17) #12
  %19 = load ptr, ptr %8, align 8
  %20 = load i32, ptr %6, align 4
  %21 = sext i32 %20 to i64
  %22 = getelementptr i8, ptr %19, i64 %21
  store i8 0, ptr %22, align 1
  %23 = load ptr, ptr %8, align 8
  %24 = call i64 @g_ascii_strtoull(ptr noundef %23, ptr noundef null, i32 noundef 10)
  %25 = trunc i64 %24 to i32
  store i32 %25, ptr %7, align 4
  %26 = load i32, ptr %7, align 4
  call void @llvm.lifetime.end.p0(i64 8, ptr %8) #12
  call void @llvm.lifetime.end.p0(i64 4, ptr %7) #12
  ret i32 %26
}

; Function Attrs: null_pointer_is_valid sspstrong uwtable
define internal zeroext i1 @dissect_cmgr_parameter(ptr noundef %0, ptr noundef %1, ptr noundef %2, i32 noundef %3, i32 noundef %4, i16 noundef zeroext %5, ptr noundef %6, i32 noundef %7, i32 noundef %8, ptr noundef %9, ptr noundef %10) #0 {
  %12 = alloca i1, align 1
  %13 = alloca ptr, align 8
  %14 = alloca ptr, align 8
  %15 = alloca ptr, align 8
  %16 = alloca i32, align 4
  %17 = alloca i32, align 4
  %18 = alloca i16, align 2
  %19 = alloca ptr, align 8
  %20 = alloca i32, align 4
  %21 = alloca i32, align 4
  %22 = alloca ptr, align 8
  %23 = alloca ptr, align 8
  %24 = alloca i32, align 4
  %25 = alloca i32, align 4
  %26 = alloca ptr, align 8
  store ptr %0, ptr %13, align 8
  store ptr %1, ptr %14, align 8
  store ptr %2, ptr %15, align 8
  store i32 %3, ptr %16, align 4
  store i32 %4, ptr %17, align 4
  store i16 %5, ptr %18, align 2
  store ptr %6, ptr %19, align 8
  store i32 %7, ptr %20, align 4
  store i32 %8, ptr %21, align 4
  store ptr %9, ptr %22, align 8
  store ptr %10, ptr %23, align 8
  call void @llvm.lifetime.start.p0(i64 4, ptr %24) #12
  store i32 0, ptr %24, align 4
  %27 = load i32, ptr %17, align 4
  %28 = icmp eq i32 %27, 2
  br i1 %28, label %29, label %33

29:                                               ; preds = %11
  %30 = load i16, ptr %18, align 2
  %31 = zext i16 %30 to i32
  %32 = icmp eq i32 %31, 61
  br i1 %32, label %41, label %33

33:                                               ; preds = %29, %11
  %34 = load i32, ptr %17, align 4
  %35 = icmp eq i32 %34, 1
  br i1 %35, label %36, label %40

36:                                               ; preds = %33
  %37 = load i16, ptr %18, align 2
  %38 = zext i16 %37 to i32
  %39 = icmp eq i32 %38, 58
  br i1 %39, label %41, label %40

40:                                               ; preds = %36, %33
  store i1 false, ptr %12, align 1
  store i32 1, ptr %25, align 4
  br label %146

41:                                               ; preds = %36, %29
  %42 = load i32, ptr %17, align 4
  %43 = icmp eq i32 %42, 2
  br i1 %43, label %44, label %48

44:                                               ; preds = %41
  %45 = load i32, ptr %20, align 4
  %46 = icmp ugt i32 %45, 1
  br i1 %46, label %47, label %48

47:                                               ; preds = %44
  store i1 false, ptr %12, align 1
  store i32 1, ptr %25, align 4
  br label %146

48:                                               ; preds = %44, %41
  %49 = load i32, ptr %17, align 4
  %50 = icmp eq i32 %49, 1
  br i1 %50, label %51, label %55

51:                                               ; preds = %48
  %52 = load i32, ptr %20, align 4
  %53 = icmp ugt i32 %52, 3
  br i1 %53, label %54, label %55

54:                                               ; preds = %51
  store i1 false, ptr %12, align 1
  store i32 1, ptr %25, align 4
  br label %146

55:                                               ; preds = %51, %48
  br label %56

56:                                               ; preds = %55
  %57 = load i32, ptr %17, align 4
  %58 = icmp eq i32 %57, 2
  br i1 %58, label %59, label %90

59:                                               ; preds = %56
  %60 = load i32, ptr %20, align 4
  switch i32 %60, label %89 [
    i32 0, label %61
    i32 1, label %75
  ]

61:                                               ; preds = %59
  %62 = load ptr, ptr %14, align 8
  %63 = getelementptr inbounds nuw %struct._packet_info, ptr %62, i32 0, i32 51
  %64 = load ptr, ptr %63, align 8
  %65 = load ptr, ptr %19, align 8
  %66 = load i32, ptr %21, align 4
  %67 = call i32 @get_uint_parameter(ptr noundef %64, ptr noundef %65, i32 noundef %66)
  store i32 %67, ptr %24, align 4
  %68 = load ptr, ptr %15, align 8
  %69 = load i32, ptr @hf_cmgr_msg_index, align 4
  %70 = load ptr, ptr %13, align 8
  %71 = load i32, ptr %16, align 4
  %72 = load i32, ptr %21, align 4
  %73 = load i32, ptr %24, align 4
  %74 = call ptr @proto_tree_add_uint(ptr noundef %68, i32 noundef %69, ptr noundef %70, i32 noundef %71, i32 noundef %72, i32 noundef %73)
  br label %89

75:                                               ; preds = %59
  %76 = load ptr, ptr %14, align 8
  %77 = getelementptr inbounds nuw %struct._packet_info, ptr %76, i32 0, i32 51
  %78 = load ptr, ptr %77, align 8
  %79 = load ptr, ptr %19, align 8
  %80 = load i32, ptr %21, align 4
  %81 = call i32 @get_uint_parameter(ptr noundef %78, ptr noundef %79, i32 noundef %80)
  store i32 %81, ptr %24, align 4
  %82 = load ptr, ptr %15, align 8
  %83 = load i32, ptr @hf_cmgr_mode, align 4
  %84 = load ptr, ptr %13, align 8
  %85 = load i32, ptr %16, align 4
  %86 = load i32, ptr %21, align 4
  %87 = load i32, ptr %24, align 4
  %88 = call ptr @proto_tree_add_uint(ptr noundef %82, i32 noundef %83, ptr noundef %84, i32 noundef %85, i32 noundef %86, i32 noundef %87)
  br label %89

89:                                               ; preds = %59, %75, %61
  br label %145

90:                                               ; preds = %56
  %91 = load i32, ptr %20, align 4
  switch i32 %91, label %144 [
    i32 0, label %92
    i32 1, label %106
    i32 2, label %113
  ]

92:                                               ; preds = %90
  %93 = load ptr, ptr %14, align 8
  %94 = getelementptr inbounds nuw %struct._packet_info, ptr %93, i32 0, i32 51
  %95 = load ptr, ptr %94, align 8
  %96 = load ptr, ptr %19, align 8
  %97 = load i32, ptr %21, align 4
  %98 = call i32 @get_uint_parameter(ptr noundef %95, ptr noundef %96, i32 noundef %97)
  store i32 %98, ptr %24, align 4
  %99 = load ptr, ptr %15, align 8
  %100 = load i32, ptr @hf_cmgr_stat, align 4
  %101 = load ptr, ptr %13, align 8
  %102 = load i32, ptr %16, align 4
  %103 = load i32, ptr %21, align 4
  %104 = load i32, ptr %24, align 4
  %105 = call ptr @proto_tree_add_uint(ptr noundef %99, i32 noundef %100, ptr noundef %101, i32 noundef %102, i32 noundef %103, i32 noundef %104)
  br label %144

106:                                              ; preds = %90
  %107 = load ptr, ptr %15, align 8
  %108 = load i32, ptr @hf_cmgr_address, align 4
  %109 = load ptr, ptr %13, align 8
  %110 = load i32, ptr %16, align 4
  %111 = load i32, ptr %21, align 4
  %112 = call ptr @proto_tree_add_item(ptr noundef %107, i32 noundef %108, ptr noundef %109, i32 noundef %110, i32 noundef %111, i32 noundef 0)
  br label %144

113:                                              ; preds = %90
  %114 = load ptr, ptr %14, align 8
  %115 = getelementptr inbounds nuw %struct._packet_info, ptr %114, i32 0, i32 51
  %116 = load ptr, ptr %115, align 8
  %117 = load ptr, ptr %19, align 8
  %118 = load i32, ptr %21, align 4
  %119 = call i32 @get_uint_parameter(ptr noundef %116, ptr noundef %117, i32 noundef %118)
  store i32 %119, ptr %24, align 4
  %120 = load ptr, ptr %15, align 8
  %121 = load i32, ptr @hf_cmgr_msg_length, align 4
  %122 = load ptr, ptr %13, align 8
  %123 = load i32, ptr %16, align 4
  %124 = load i32, ptr %21, align 4
  %125 = load i32, ptr %24, align 4
  %126 = call ptr @proto_tree_add_uint(ptr noundef %120, i32 noundef %121, ptr noundef %122, i32 noundef %123, i32 noundef %124, i32 noundef %125)
  call void @llvm.lifetime.start.p0(i64 8, ptr %26) #12
  %127 = load ptr, ptr %22, align 8
  %128 = load i32, ptr %17, align 4
  %129 = call ptr @get_current_role_last_command(ptr noundef %127, i32 noundef %128)
  store ptr %129, ptr %26, align 8
  %130 = load ptr, ptr %26, align 8
  %131 = icmp ne ptr %130, null
  br i1 %131, label %133, label %132

132:                                              ; preds = %113
  store i32 3, ptr %25, align 4
  br label %143

133:                                              ; preds = %113
  %134 = load i16, ptr %18, align 2
  %135 = load ptr, ptr %26, align 8
  %136 = getelementptr inbounds nuw %struct._at_processed_cmd_t, ptr %135, i32 0, i32 1
  store i16 %134, ptr %136, align 4
  %137 = load ptr, ptr %26, align 8
  %138 = getelementptr inbounds nuw %struct._at_processed_cmd_t, ptr %137, i32 0, i32 2
  store i32 1, ptr %138, align 8
  %139 = load ptr, ptr %26, align 8
  %140 = getelementptr inbounds nuw %struct._at_processed_cmd_t, ptr %139, i32 0, i32 3
  store i32 0, ptr %140, align 4
  %141 = load ptr, ptr %26, align 8
  %142 = getelementptr inbounds nuw %struct._at_processed_cmd_t, ptr %141, i32 0, i32 5
  store ptr @dissect_cmgr_data_part, ptr %142, align 8
  store i32 3, ptr %25, align 4
  br label %143

143:                                              ; preds = %133, %132
  call void @llvm.lifetime.end.p0(i64 8, ptr %26) #12
  br label %144

144:                                              ; preds = %90, %143, %106, %92
  br label %145

145:                                              ; preds = %144, %89
  store i1 true, ptr %12, align 1
  store i32 1, ptr %25, align 4
  br label %146

146:                                              ; preds = %145, %54, %47, %40
  call void @llvm.lifetime.end.p0(i64 4, ptr %24) #12
  %147 = load i1, ptr %12, align 1
  ret i1 %147
}