; Function Attrs: null_pointer_is_valid sspstrong uwtable
define internal noundef zeroext i1 @dissect_cmgr_parameter(ptr noundef %0, ptr noundef readonly captures(none) %1, ptr noundef %2, i32 noundef %3, i32 noundef %4, i16 noundef zeroext %5, ptr noundef readonly captures(none) %6, i32 noundef %7, i32 noundef %8, ptr noundef writeonly captures(address_is_null) %9, ptr readnone captures(none) %10) #0 {
  %12 = icmp eq i32 %4, 2
  %13 = icmp eq i16 %5, 61
  %or.cond = and i1 %12, %13
  br i1 %or.cond, label %18, label %14

14:                                               ; preds = %11
  %15 = icmp ne i32 %4, 1
  %16 = icmp ne i16 %5, 58
  %or.cond5.not72 = or i1 %15, %16
  %17 = icmp ugt i32 %7, 3
  %or.cond70 = or i1 %or.cond5.not72, %17
  br i1 %or.cond70, label %74, label %37

18:                                               ; preds = %11
  %.old = icmp ugt i32 %7, 1
  br i1 %.old, label %74, label %19

19:                                               ; preds = %18
  %switch = icmp eq i32 %7, 0
  %20 = getelementptr inbounds nuw i8, ptr %1, i64 408
  %21 = load ptr, ptr %20, align 8
  %22 = add i32 %8, 1
  %23 = sext i32 %22 to i64
  %24 = tail call noalias ptr @wmem_alloc(ptr noundef %21, i64 noundef %23) #12
  %25 = sext i32 %8 to i64
  %26 = icmp ne i32 %22, -1
  tail call void @llvm.assume(i1 %26)
  %27 = tail call ptr @__memcpy_chk(ptr noundef %24, ptr noundef readonly %6, i64 noundef range(i64 -2147483648, 2147483648) %25, i64 noundef %23) #13
  %28 = getelementptr i8, ptr %24, i64 %25
  store i8 0, ptr %28, align 1
  %29 = tail call i64 @g_ascii_strtoull(ptr noundef %24, ptr noundef null, i32 noundef 10)
  %30 = trunc i64 %29 to i32
  br i1 %switch, label %31, label %34

31:                                               ; preds = %19
  %32 = load i32, ptr @hf_cmgr_msg_index, align 4
  %33 = tail call ptr @proto_tree_add_uint(ptr noundef %2, i32 noundef %32, ptr noundef %0, i32 noundef %3, i32 noundef %8, i32 noundef %30)
  br label %74

34:                                               ; preds = %19
  %35 = load i32, ptr @hf_cmgr_mode, align 4
  %36 = tail call ptr @proto_tree_add_uint(ptr noundef %2, i32 noundef %35, ptr noundef %0, i32 noundef %3, i32 noundef %8, i32 noundef %30)
  br label %74

37:                                               ; preds = %14
  switch i32 %7, label %74 [
    i32 0, label %38
    i32 1, label %52
    i32 2, label %55
  ]

38:                                               ; preds = %37
  %39 = getelementptr inbounds nuw i8, ptr %1, i64 408
  %40 = load ptr, ptr %39, align 8
  %41 = add i32 %8, 1
  %42 = sext i32 %41 to i64
  %43 = tail call noalias ptr @wmem_alloc(ptr noundef %40, i64 noundef %42) #12
  %44 = sext i32 %8 to i64
  %45 = icmp ne i32 %41, -1
  tail call void @llvm.assume(i1 %45)
  %46 = tail call ptr @__memcpy_chk(ptr noundef %43, ptr noundef readonly %6, i64 noundef range(i64 -2147483648, 2147483648) %44, i64 noundef %42) #13, !alias.scope !91
  %47 = getelementptr i8, ptr %43, i64 %44
  store i8 0, ptr %47, align 1
  %48 = tail call i64 @g_ascii_strtoull(ptr noundef %43, ptr noundef null, i32 noundef 10)
  %49 = trunc i64 %48 to i32
  %50 = load i32, ptr @hf_cmgr_stat, align 4
  %51 = tail call ptr @proto_tree_add_uint(ptr noundef %2, i32 noundef %50, ptr noundef %0, i32 noundef %3, i32 noundef %8, i32 noundef %49)
  br label %74

52:                                               ; preds = %37
  %53 = load i32, ptr @hf_cmgr_address, align 4
  %54 = tail call ptr @proto_tree_add_item(ptr noundef %2, i32 noundef %53, ptr noundef %0, i32 noundef %3, i32 noundef %8, i32 noundef 0)
  br label %74

55:                                               ; preds = %37
  %56 = getelementptr inbounds nuw i8, ptr %1, i64 408
  %57 = load ptr, ptr %56, align 8
  %58 = add i32 %8, 1
  %59 = sext i32 %58 to i64
  %60 = tail call noalias ptr @wmem_alloc(ptr noundef %57, i64 noundef %59) #12
  %61 = sext i32 %8 to i64
  %62 = icmp ne i32 %58, -1
  tail call void @llvm.assume(i1 %62)
  %63 = tail call ptr @__memcpy_chk(ptr noundef %60, ptr noundef readonly %6, i64 noundef range(i64 -2147483648, 2147483648) %61, i64 noundef %59) #13, !alias.scope !95
  %64 = getelementptr i8, ptr %60, i64 %61
  store i8 0, ptr %64, align 1
  %65 = tail call i64 @g_ascii_strtoull(ptr noundef %60, ptr noundef null, i32 noundef 10)
  %66 = trunc i64 %65 to i32
  %67 = load i32, ptr @hf_cmgr_msg_length, align 4
  %68 = tail call ptr @proto_tree_add_uint(ptr noundef %2, i32 noundef %67, ptr noundef %0, i32 noundef %3, i32 noundef %8, i32 noundef %66)
  %.not.i = icmp eq ptr %9, null
  br i1 %.not.i, label %74, label %69

69:                                               ; preds = %55
  %70 = getelementptr inbounds nuw i8, ptr %9, i64 164
  store i16 58, ptr %70, align 4
  %71 = getelementptr inbounds nuw i8, ptr %9, i64 168
  store i32 1, ptr %71, align 8
  %72 = getelementptr inbounds nuw i8, ptr %9, i64 172
  store i32 0, ptr %72, align 4
  %73 = getelementptr inbounds nuw i8, ptr %9, i64 184
  store ptr @dissect_cmgr_data_part, ptr %73, align 8
  br label %74

74:                                               ; preds = %34, %31, %52, %38, %37, %55, %69, %18, %14
  %.0 = phi i1 [ false, %14 ], [ false, %18 ], [ true, %69 ], [ true, %55 ], [ true, %37 ], [ true, %38 ], [ true, %52 ], [ true, %31 ], [ true, %34 ]
  ret i1 %.0
}